target datalayout = "e-m:e-p270:32:32-p271:32:32-p272:64:64-i64:64-i128:128-f80:128-n8:16:32:64-S128"
target triple = "x86_64-pc-linux-gnu"

%struct.CharRange = type { i32, i32, ptr, ptr, ptr }

; Function Attrs: nounwind uwtable
define internal void @cr_sort_and_remove_overlap(ptr noundef %0) #0 {
  %2 = alloca ptr, align 8
  %3 = alloca i32, align 4
  %4 = alloca i32, align 4
  %5 = alloca i32, align 4
  %6 = alloca i32, align 4
  %7 = alloca i32, align 4
  %8 = alloca i32, align 4
  store ptr %0, ptr %2, align 8
  %9 = load ptr, ptr %2, align 8
  %10 = getelementptr inbounds %struct.CharRange, ptr %9, i32 0, i32 2
  %11 = load ptr, ptr %10, align 8
  %12 = load ptr, ptr %2, align 8
  %13 = getelementptr inbounds %struct.CharRange, ptr %12, i32 0, i32 0
  %14 = load i32, ptr %13, align 8
  %15 = sdiv i32 %14, 2
  %16 = sext i32 %15 to i64
  call void @rqsort(ptr noundef %11, i64 noundef %16, i64 noundef 8, ptr noundef @point_cmp, ptr noundef null)
  store i32 0, ptr %8, align 4
  store i32 0, ptr %7, align 4
  br label %17

17:                                               ; preds = %80, %1
  %18 = load i32, ptr %7, align 4
  %19 = load ptr, ptr %2, align 8
  %20 = getelementptr inbounds %struct.CharRange, ptr %19, i32 0, i32 0
  %21 = load i32, ptr %20, align 8
  %22 = icmp ult i32 %18, %21
  br i1 %22, label %23, label %98

23:                                               ; preds = %17
  %24 = load ptr, ptr %2, align 8
  %25 = getelementptr inbounds %struct.CharRange, ptr %24, i32 0, i32 2
  %26 = load ptr, ptr %25, align 8
  %27 = load i32, ptr %7, align 4
  %28 = zext i32 %27 to i64
  %29 = getelementptr i32, ptr %26, i64 %28
  %30 = load i32, ptr %29, align 4
  store i32 %30, ptr %3, align 4
  %31 = load ptr, ptr %2, align 8
  %32 = getelementptr inbounds %struct.CharRange, ptr %31, i32 0, i32 2
  %33 = load ptr, ptr %32, align 8
  %34 = load i32, ptr %7, align 4
  %35 = add i32 %34, 1
  %36 = zext i32 %35 to i64
  %37 = getelementptr i32, ptr %33, i64 %36
  %38 = load i32, ptr %37, align 4
  store i32 %38, ptr %4, align 4
  %39 = load i32, ptr %7, align 4
  %40 = add i32 %39, 2
  store i32 %40, ptr %7, align 4
  br label %41

41:                                               ; preds = %79, %23
  %42 = load i32, ptr %7, align 4
  %43 = load ptr, ptr %2, align 8
  %44 = getelementptr inbounds %struct.CharRange, ptr %43, i32 0, i32 0
  %45 = load i32, ptr %44, align 8
  %46 = icmp ult i32 %42, %45
  br i1 %46, label %47, label %80

47:                                               ; preds = %41
  %48 = load ptr, ptr %2, align 8
  %49 = getelementptr inbounds %struct.CharRange, ptr %48, i32 0, i32 2
  %50 = load ptr, ptr %49, align 8
  %51 = load i32, ptr %7, align 4
  %52 = zext i32 %51 to i64
  %53 = getelementptr i32, ptr %50, i64 %52
  %54 = load i32, ptr %53, align 4
  store i32 %54, ptr %5, align 4
  %55 = load ptr, ptr %2, align 8
  %56 = getelementptr inbounds %struct.CharRange, ptr %55, i32 0, i32 2
  %57 = load ptr, ptr %56, align 8
  %58 = load i32, ptr %7, align 4
  %59 = add i32 %58, 1
  %60 = zext i32 %59 to i64
  %61 = getelementptr i32, ptr %57, i64 %60
  %62 = load i32, ptr %61, align 4
  store i32 %62, ptr %6, align 4
  %63 = load i32, ptr %5, align 4
  %64 = load i32, ptr %4, align 4
  %65 = icmp ugt i32 %63, %64
  br i1 %65, label %66, label %67

66:                                               ; preds = %47
  br label %80

67:                                               ; preds = %47
  %68 = load i32, ptr %6, align 4
  %69 = load i32, ptr %4, align 4
  %70 = icmp ule i32 %68, %69
  br i1 %70, label %71, label %74

71:                                               ; preds = %67
  %72 = load i32, ptr %7, align 4
  %73 = add i32 %72, 2
  store i32 %73, ptr %7, align 4
  br label %78

74:                                               ; preds = %67
  %75 = load i32, ptr %6, align 4
  store i32 %75, ptr %4, align 4
  %76 = load i32, ptr %7, align 4
  %77 = add i32 %76, 2
  store i32 %77, ptr %7, align 4
  br label %78

78:                                               ; preds = %74, %71
  br label %79

79:                                               ; preds = %78
  br label %41, !llvm.loop !29

80:                                               ; preds = %66, %41
  %81 = load i32, ptr %3, align 4
  %82 = load ptr, ptr %2, align 8
  %83 = getelementptr inbounds %struct.CharRange, ptr %82, i32 0, i32 2
  %84 = load ptr, ptr %83, align 8
  %85 = load i32, ptr %8, align 4
  %86 = zext i32 %85 to i64
  %87 = getelementptr i32, ptr %84, i64 %86
  store i32 %81, ptr %87, align 4
  %88 = load i32, ptr %4, align 4
  %89 = load ptr, ptr %2, align 8
  %90 = getelementptr inbounds %struct.CharRange, ptr %89, i32 0, i32 2
  %91 = load ptr, ptr %90, align 8
  %92 = load i32, ptr %8, align 4
  %93 = add i32 %92, 1
  %94 = zext i32 %93 to i64
  %95 = getelementptr i32, ptr %91, i64 %94
  store i32 %88, ptr %95, align 4
  %96 = load i32, ptr %8, align 4
  %97 = add i32 %96, 2
  store i32 %97, ptr %8, align 4
  br label %17, !llvm.loop !30

98:                                               ; preds = %17
  %99 = load i32, ptr %8, align 4
  %100 = load ptr, ptr %2, align 8
  %101 = getelementptr inbounds %struct.CharRange, ptr %100, i32 0, i32 0
  store i32 %99, ptr %101, align 8
  ret void
}