; Function Attrs: nounwind uwtable
define internal fastcc void @cr_sort_and_remove_overlap(ptr nocapture noundef %0) unnamed_addr #5 {
  %2 = getelementptr inbounds i8, ptr %0, i64 8
  %3 = load ptr, ptr %2, align 8
  %4 = load i32, ptr %0, align 8
  %5 = sdiv i32 %4, 2
  %6 = sext i32 %5 to i64
  tail call void @rqsort(ptr noundef %3, i64 noundef %6, i64 noundef 8, ptr noundef nonnull @point_cmp, ptr noundef null) #20
  %7 = load i32, ptr %0, align 8
  %.not = icmp eq i32 %7, 0
  br i1 %.not, label %._crit_edge46, label %.lr.ph45

.lr.ph45:                                         ; preds = %1, %._crit_edge
  %8 = phi i32 [ %35, %._crit_edge ], [ %7, %1 ]
  %.043 = phi i32 [ %34, %._crit_edge ], [ 0, %1 ]
  %.03042 = phi i32 [ %.1.lcssa, %._crit_edge ], [ 0, %1 ]
  %9 = load ptr, ptr %2, align 8
  %10 = zext i32 %.03042 to i64
  %11 = getelementptr i32, ptr %9, i64 %10
  %12 = load i32, ptr %11, align 4
  %13 = add nuw i32 %.03042, 1
  %14 = zext i32 %13 to i64
  %15 = getelementptr i32, ptr %9, i64 %14
  %16 = load i32, ptr %15, align 4
  %.134 = add i32 %.03042, 2
  %17 = icmp ult i32 %.134, %8
  br i1 %17, label %.lr.ph, label %._crit_edge

.lr.ph:                                           ; preds = %.lr.ph45, %22
  %.137 = phi i32 [ %.1, %22 ], [ %.134, %.lr.ph45 ]
  %.1.in36 = phi i32 [ %.137, %22 ], [ %.03042, %.lr.ph45 ]
  %.03135 = phi i32 [ %..031, %22 ], [ %16, %.lr.ph45 ]
  %18 = zext i32 %.137 to i64
  %19 = getelementptr i32, ptr %9, i64 %18
  %20 = load i32, ptr %19, align 4
  %21 = icmp ugt i32 %20, %.03135
  br i1 %21, label %._crit_edge, label %22

22:                                               ; preds = %.lr.ph
  %23 = add i32 %.1.in36, 3
  %24 = zext i32 %23 to i64
  %25 = getelementptr i32, ptr %9, i64 %24
  %26 = load i32, ptr %25, align 4
  %..031 = tail call i32 @llvm.umax.i32(i32 %26, i32 %.03135)
  %.1 = add i32 %.137, 2
  %27 = icmp ult i32 %.1, %8
  br i1 %27, label %.lr.ph, label %._crit_edge, !llvm.loop !35

._crit_edge:                                      ; preds = %22, %.lr.ph, %.lr.ph45
  %.031.lcssa = phi i32 [ %16, %.lr.ph45 ], [ %.03135, %.lr.ph ], [ %..031, %22 ]
  %.1.lcssa = phi i32 [ %.134, %.lr.ph45 ], [ %.137, %.lr.ph ], [ %.1, %22 ]
  %28 = zext i32 %.043 to i64
  %29 = getelementptr i32, ptr %9, i64 %28
  store i32 %12, ptr %29, align 4
  %30 = load ptr, ptr %2, align 8
  %31 = or disjoint i32 %.043, 1
  %32 = zext i32 %31 to i64
  %33 = getelementptr i32, ptr %30, i64 %32
  store i32 %.031.lcssa, ptr %33, align 4
  %34 = add i32 %.043, 2
  %35 = load i32, ptr %0, align 8
  %36 = icmp ult i32 %.1.lcssa, %35
  br i1 %36, label %.lr.ph45, label %._crit_edge46, !llvm.loop !36

._crit_edge46:                                    ; preds = %._crit_edge, %1
  %.0.lcssa = phi i32 [ 0, %1 ], [ %34, %._crit_edge ]
  store i32 %.0.lcssa, ptr %0, align 8
  ret void
}